; ModuleID = '38/921.c'
source_filename = "38/921.c"
target datalayout = "e-m:e-p270:32:32-p271:32:32-p272:64:64-i64:64-f80:128-n8:16:32:64-S128"
target triple = "x86_64-pc-linux-gnu"

@.str = private unnamed_addr constant [3 x i8] c"%d\00", align 1
@.str.1 = private unnamed_addr constant [4 x i8] c"%lf\00", align 1
@.str.2 = private unnamed_addr constant [7 x i8] c"%.5lf\0A\00", align 1

; Function Attrs: noinline nounwind uwtable
define dso_local i32 @main() #0 {
  %1 = alloca i32, align 4
  %2 = alloca i32, align 4
  %3 = alloca i32, align 4
  %4 = alloca i32, align 4
  %5 = alloca i32, align 4
  %6 = alloca [100 x [1000 x double]], align 16
  %7 = alloca double, align 8
  %8 = alloca [100 x double], align 16
  store i32 0, i32* %1, align 4
  %9 = bitcast [100 x double]* %8 to i8*
  call void @llvm.memset.p0i8.i64(i8* align 16 %9, i8 0, i64 800, i1 false)
  %10 = call i32 (i8*, ...) @__isoc99_scanf(i8* getelementptr inbounds ([3 x i8], [3 x i8]* @.str, i64 0, i64 0), i32* %2)
  store i32 0, i32* %4, align 4
  br label %11

11:                                               ; preds = %109, %0
  %12 = load i32, i32* %4, align 4
  %13 = load i32, i32* %2, align 4
  %14 = icmp slt i32 %12, %13
  br i1 %14, label %15, label %112

15:                                               ; preds = %11
  store double 0.000000e+00, double* %7, align 8
  %16 = call i32 (i8*, ...) @__isoc99_scanf(i8* getelementptr inbounds ([3 x i8], [3 x i8]* @.str, i64 0, i64 0), i32* %3)
  store i32 0, i32* %5, align 4
  br label %17

17:                                               ; preds = %29, %15
  %18 = load i32, i32* %5, align 4
  %19 = load i32, i32* %3, align 4
  %20 = icmp slt i32 %18, %19
  br i1 %20, label %21, label %32

21:                                               ; preds = %17
  %22 = load i32, i32* %4, align 4
  %23 = sext i32 %22 to i64
  %24 = getelementptr inbounds [100 x [1000 x double]], [100 x [1000 x double]]* %6, i64 0, i64 %23
  %25 = load i32, i32* %5, align 4
  %26 = sext i32 %25 to i64
  %27 = getelementptr inbounds [1000 x double], [1000 x double]* %24, i64 0, i64 %26
  %28 = call i32 (i8*, ...) @__isoc99_scanf(i8* getelementptr inbounds ([4 x i8], [4 x i8]* @.str.1, i64 0, i64 0), double* %27)
  br label %29

29:                                               ; preds = %21
  %30 = load i32, i32* %5, align 4
  %31 = add nsw i32 %30, 1
  store i32 %31, i32* %5, align 4
  br label %17

32:                                               ; preds = %17
  store i32 0, i32* %5, align 4
  br label %33

33:                                               ; preds = %47, %32
  %34 = load i32, i32* %5, align 4
  %35 = load i32, i32* %3, align 4
  %36 = icmp slt i32 %34, %35
  br i1 %36, label %37, label %50

37:                                               ; preds = %33
  %38 = load double, double* %7, align 8
  %39 = load i32, i32* %4, align 4
  %40 = sext i32 %39 to i64
  %41 = getelementptr inbounds [100 x [1000 x double]], [100 x [1000 x double]]* %6, i64 0, i64 %40
  %42 = load i32, i32* %5, align 4
  %43 = sext i32 %42 to i64
  %44 = getelementptr inbounds [1000 x double], [1000 x double]* %41, i64 0, i64 %43
  %45 = load double, double* %44, align 8
  %46 = fadd double %38, %45
  store double %46, double* %7, align 8
  br label %47

47:                                               ; preds = %37
  %48 = load i32, i32* %5, align 4
  %49 = add nsw i32 %48, 1
  store i32 %49, i32* %5, align 4
  br label %33

50:                                               ; preds = %33
  %51 = load double, double* %7, align 8
  %52 = load i32, i32* %3, align 4
  %53 = sitofp i32 %52 to double
  %54 = fdiv double %51, %53
  store double %54, double* %7, align 8
  store i32 0, i32* %5, align 4
  br label %55

55:                                               ; preds = %87, %50
  %56 = load i32, i32* %5, align 4
  %57 = load i32, i32* %3, align 4
  %58 = icmp slt i32 %56, %57
  br i1 %58, label %59, label %90

59:                                               ; preds = %55
  %60 = load i32, i32* %4, align 4
  %61 = sext i32 %60 to i64
  %62 = getelementptr inbounds [100 x double], [100 x double]* %8, i64 0, i64 %61
  %63 = load double, double* %62, align 8
  %64 = load i32, i32* %4, align 4
  %65 = sext i32 %64 to i64
  %66 = getelementptr inbounds [100 x [1000 x double]], [100 x [1000 x double]]* %6, i64 0, i64 %65
  %67 = load i32, i32* %5, align 4
  %68 = sext i32 %67 to i64
  %69 = getelementptr inbounds [1000 x double], [1000 x double]* %66, i64 0, i64 %68
  %70 = load double, double* %69, align 8
  %71 = load double, double* %7, align 8
  %72 = fsub double %70, %71
  %73 = load i32, i32* %4, align 4
  %74 = sext i32 %73 to i64
  %75 = getelementptr inbounds [100 x [1000 x double]], [100 x [1000 x double]]* %6, i64 0, i64 %74
  %76 = load i32, i32* %5, align 4
  %77 = sext i32 %76 to i64
  %78 = getelementptr inbounds [1000 x double], [1000 x double]* %75, i64 0, i64 %77
  %79 = load double, double* %78, align 8
  %80 = load double, double* %7, align 8
  %81 = fsub double %79, %80
  %82 = fmul double %72, %81
  %83 = fadd double %63, %82
  %84 = load i32, i32* %4, align 4
  %85 = sext i32 %84 to i64
  %86 = getelementptr inbounds [100 x double], [100 x double]* %8, i64 0, i64 %85
  store double %83, double* %86, align 8
  br label %87

87:                                               ; preds = %59
  %88 = load i32, i32* %5, align 4
  %89 = add nsw i32 %88, 1
  store i32 %89, i32* %5, align 4
  br label %55

90:                                               ; preds = %55
  %91 = load i32, i32* %4, align 4
  %92 = sext i32 %91 to i64
  %93 = getelementptr inbounds [100 x double], [100 x double]* %8, i64 0, i64 %92
  %94 = load double, double* %93, align 8
  %95 = load i32, i32* %3, align 4
  %96 = sitofp i32 %95 to double
  %97 = fdiv double %94, %96
  %98 = load i32, i32* %4, align 4
  %99 = sext i32 %98 to i64
  %100 = getelementptr inbounds [100 x double], [100 x double]* %8, i64 0, i64 %99
  store double %97, double* %100, align 8
  %101 = load i32, i32* %4, align 4
  %102 = sext i32 %101 to i64
  %103 = getelementptr inbounds [100 x double], [100 x double]* %8, i64 0, i64 %102
  %104 = load double, double* %103, align 8
  %105 = call double @sqrt(double %104) #4
  %106 = load i32, i32* %4, align 4
  %107 = sext i32 %106 to i64
  %108 = getelementptr inbounds [100 x double], [100 x double]* %8, i64 0, i64 %107
  store double %105, double* %108, align 8
  br label %109

109:                                              ; preds = %90
  %110 = load i32, i32* %4, align 4
  %111 = add nsw i32 %110, 1
  store i32 %111, i32* %4, align 4
  br label %11

112:                                              ; preds = %11
  store i32 0, i32* %4, align 4
  br label %113

113:                                              ; preds = %123, %112
  %114 = load i32, i32* %4, align 4
  %115 = load i32, i32* %2, align 4
  %116 = icmp slt i32 %114, %115
  br i1 %116, label %117, label %126

117:                                              ; preds = %113
  %118 = load i32, i32* %4, align 4
  %119 = sext i32 %118 to i64
  %120 = getelementptr inbounds [100 x double], [100 x double]* %8, i64 0, i64 %119
  %121 = load double, double* %120, align 8
  %122 = call i32 (i8*, ...) @printf(i8* getelementptr inbounds ([7 x i8], [7 x i8]* @.str.2, i64 0, i64 0), double %121)
  br label %123

123:                                              ; preds = %117
  %124 = load i32, i32* %4, align 4
  %125 = add nsw i32 %124, 1
  store i32 %125, i32* %4, align 4
  br label %113

126:                                              ; preds = %113
  ret i32 0
}

; Function Attrs: argmemonly nounwind willreturn
declare void @llvm.memset.p0i8.i64(i8* nocapture writeonly, i8, i64, i1 immarg) #1

declare dso_local i32 @__isoc99_scanf(i8*, ...) #2

; Function Attrs: nounwind
declare dso_local double @sqrt(double) #3

declare dso_local i32 @printf(i8*, ...) #2


!llvm.module.flags = !{!0}
!llvm.ident = !{!1}

!0 = !{i32 1, !"wchar_size", i32 4}
!1 = !{!"clang version 10.0.0-4ubuntu1 "}
